-----BEGIN RSA PRIVATE KEY-----
MIIEpgIBAAKCAQEA3QDipTZ/iIbv5+lr45WuPnK0TOJK11NhfOO2Vt5i1tSY14Bh
3uzg2ZwQQTcwGizYUWqM9m7Z16CgR1j4seh13c12U1eF3GeBkC+FynYPWCBIjaZY
kYGCoWMJGwTLdNct3yB6cmcJJgQ+Jf3a+uE4Bz1+0Lo5fuL071uW++1qTRSxXWpq
zW9yrO+oTELQ09Z4Z2RHt9AGsZFUR5fLvhNbFXIDxma40Ucjf8oHWliCTnN6KW2L
V6XTCAJ3YbnKPAhxudLl9V4RkgPjB3smuvSiUuCpopW2MgqIhB2c5baGXmBk8jDc
t3vVqZQlF4mlYed/PKlqLu+D7sPLyhtf0UxD7wIDAQABAoIBAQCJgE6DKigpAoNr
D+CvZWZWtjkViMm1tMv3zxmYbJ6kOPurQNYjw8+VtLKsULDd6D7iUN/JR2jD7s0p
9uIslowW5wmSiubfHYsP8XFVaSTc2KEreG6sgR6MWLjGlbIcTPDeXS+x1AduHr+o
FYxUASJB5vHq3aJ+Hqjz71E+BxXXRDuI4pMutanjxUfeJ8yYfX0VlBTG1s5GyJ26
91/E/LHNf4r7TxtzufBOLClH0uTpDE0oR8xOsyN1JZ2ELVXC5K3S0/timYl8bGaQ
HI+sRMKbrVXg3TVzGNwaOJHSpYNVjH78fQ3o8wF8vmVdxUyy90t769mf1ChGFksJ
R/zoPMOpAoGBAPSl2xDeH6L6IM3O3+lWxr8bE/Mi5Bc70fAeKlbuKOoHc819bL2R
Y2g9mdrWzU0tAIlniX2xnvfhaEflIZrmhcr2bpy9HJ6CA4k+OWgBd9OjKHkyuVPQ
WcEVxw5MQfpM8ZrP/X+f6jfqv8ppsqIWHHilvxYct2eYUJSFFMMpQ4i9AoGBAOdC
KQhSFxHusjn34q05OsIjOijHM4oRK0TfhKGhj0zO+ZgtmjASB65f6cwD/diBpQck
cUZlPm/3AwrdyMxxM5CShbEapCHTvHNMVef7D+9mcfS9t94Omc/Bbylg32LU2p3z
8QLvUZykWrqskUa2Hfj6B5g8wAlWfY46QIQbSbgbAoGBAJCr367K28SBy5JJCsou
oZrzRUnbUSyYGF65R+peLd2vCID08a/sYO+MtgXeTkucGBwpGPo2Zj5JkmQpkETM
m0PZlLGld14YnkSzgjkJ3TVO36lEIKn6pIj0+uBuofmFNL6KzmqBQ31LmZz2Aket
caq6wRQvaRmezc/2HsAGD8S1AoGBANrfcExyvWj4fHCG32BJeQZDJwlvN6VmCIi/
8By19xWgEvTnvDXg6qosFvBDmt5uHY37/MW+jvCTXarMK/7q6P3c33G2oD9v0b1i
MzBDG1ren94eLUaalRLfpeEI0YQNpve16JZ5gMl7eG+TYlAFj6qUodmBLdPoqx6Q
nX0rAoOfAoGBAJCVxXpVgqs9uSSeC+uwDoPsBwh9W1KkVUsVN57Ub0v8LbRBF1Qa
NYgYpARLEg+8d7mGkeZ3+mmQHGHcTl/CA36Y7tTO9IXSQ2wbYJAPv5G/iMY/7A0h
RlecHDCE7WC+c0FRJ27Kdrf6zG4rYIqhkb+eLdYczhKi3wPxmf0Pkf2P
-----END RSA PRIVATE KEY-----
Certificate:
    Data:
        Version: 3 (0x2)
        Serial Number: 1 (0x1)
    Signature Algorithm: sha256WithRSAEncryption
        Issuer: C=CN, ST=shannxi, L=xi'an, O=marmot, OU=tech, CN=www.marmot.com/emailAddress=41893204@qq.com
        Validity
            Not Before: Dec 27 03:50:41 2017 GMT
            Not After : Dec 30 03:50:41 2027 GMT
        Subject: C=CN, ST=shannxi, O=marmot, OU=tech, CN=mongo/emailAddress=41893204@qq.com
        Subject Public Key Info:
            Public Key Algorithm: rsaEncryption
                Public-Key: (2048 bit)
                Modulus:
                    00:dd:00:e2:a5:36:7f:88:86:ef:e7:e9:6b:e3:95:
                    ae:3e:72:b4:4c:e2:4a:d7:53:61:7c:e3:b6:56:de:
                    62:d6:d4:98:d7:80:61:de:ec:e0:d9:9c:10:41:37:
                    30:1a:2c:d8:51:6a:8c:f6:6e:d9:d7:a0:a0:47:58:
                    f8:b1:e8:75:dd:cd:76:53:57:85:dc:67:81:90:2f:
                    85:ca:76:0f:58:20:48:8d:a6:58:91:81:82:a1:63:
                    09:1b:04:cb:74:d7:2d:df:20:7a:72:67:09:26:04:
                    3e:25:fd:da:fa:e1:38:07:3d:7e:d0:ba:39:7e:e2:
                    f4:ef:5b:96:fb:ed:6a:4d:14:b1:5d:6a:6a:cd:6f:
                    72:ac:ef:a8:4c:42:d0:d3:d6:78:67:64:47:b7:d0:
                    06:b1:91:54:47:97:cb:be:13:5b:15:72:03:c6:66:
                    b8:d1:47:23:7f:ca:07:5a:58:82:4e:73:7a:29:6d:
                    8b:57:a5:d3:08:02:77:61:b9:ca:3c:08:71:b9:d2:
                    e5:f5:5e:11:92:03:e3:07:7b:26:ba:f4:a2:52:e0:
                    a9:a2:95:b6:32:0a:88:84:1d:9c:e5:b6:86:5e:60:
                    64:f2:30:dc:b7:7b:d5:a9:94:25:17:89:a5:61:e7:
                    7f:3c:a9:6a:2e:ef:83:ee:c3:cb:ca:1b:5f:d1:4c:
                    43:ef
                Exponent: 65537 (0x10001)
        X509v3 extensions:
            X509v3 Basic Constraints: 
                CA:FALSE
            Netscape Comment: 
                OpenSSL Generated Certificate
            X509v3 Subject Key Identifier: 
                93:0C:9F:6E:FB:38:47:85:12:38:5F:D1:59:79:53:F7:A9:BF:F4:D9
            X509v3 Authority Key Identifier: 
                keyid:5B:9B:0E:5B:F4:FF:85:08:72:46:7E:85:3C:D2:C1:B8:FA:1D:5F:81

    Signature Algorithm: sha256WithRSAEncryption
         9e:60:ef:76:9d:b1:a5:2b:c9:9e:bb:7a:30:5b:a2:6c:e5:ba:
         9a:fe:32:52:ef:40:5d:bc:a5:99:0a:b1:c9:d7:5a:42:49:10:
         23:45:3d:3d:eb:e8:ff:df:5f:75:5d:a0:04:0a:a3:40:f8:81:
         f3:05:5e:c4:9e:37:59:4b:42:30:f2:0b:0e:d4:7e:bd:a6:c4:
         43:f4:8f:76:c6:59:32:93:9b:e9:85:3e:87:0f:fd:0e:e0:4d:
         76:c2:1c:73:6c:04:ed:96:70:71:bf:b1:97:25:34:72:d6:ef:
         7b:ba:a1:d8:f8:2e:d7:8b:8d:4f:30:39:0c:38:97:d7:32:62:
         1e:ac:d5:f3:e1:e1:f0:73:d6:50:30:b7:4b:9b:b4:d2:3b:fd:
         07:64:50:0a:40:44:32:1f:3a:47:ba:1b:0d:f3:c7:b2:c3:c4:
         a7:a8:71:61:37:3e:8c:50:f2:e6:aa:41:e8:d2:92:37:37:6d:
         be:24:4b:e4:d2:c8:96:3e:ec:9b:18:e8:f4:b3:4a:07:78:79:
         2a:54:58:e2:09:47:5f:9f:bd:09:56:8a:87:03:9e:34:eb:0a:
         de:23:ee:ff:92:ff:37:4e:18:0d:c6:c6:da:b1:fa:ab:2d:e7:
         c4:24:52:0a:d4:63:32:e1:b9:7d:4b:d7:b9:ed:6a:f4:b4:75:
         91:2c:16:e0:36:b8:89:c9:f0:4c:0c:ff:d8:08:b0:11:cf:1b:
         5c:62:8c:23:71:2e:1c:41:2c:75:77:d6:af:96:e9:37:f9:67:
         ab:7c:16:e9:a6:ab:98:23:7c:24:7c:12:1d:9c:6d:3c:81:70:
         f8:23:ce:54:bd:d3:68:9e:ad:76:89:80:60:56:77:3a:b4:ff:
         74:8d:3e:41:bf:03:50:6a:17:9c:3d:90:df:fd:bf:5f:56:6e:
         f6:79:27:e7:f7:dc:82:77:72:8c:8c:d7:ec:92:bf:23:6c:2e:
         43:0f:77:ae:46:b4:58:90:b5:72:2f:86:08:d3:9d:e0:25:9e:
         a8:99:20:d6:55:b9:76:ea:df:a4:e8:1c:34:47:0c:8d:d2:41:
         44:19:55:7c:6c:d1:58:75:10:d6:b2:9a:e1:43:e3:21:e8:cf:
         75:a7:8d:cf:ec:61:ef:1d:fc:bb:63:ba:4d:25:f6:df:4e:4f:
         ef:c1:99:f9:22:ae:5b:a0:67:59:65:6f:7f:ea:5e:af:8f:08:
         64:a1:c1:38:21:e2:e6:8f:35:64:27:17:e2:21:da:04:66:00:
         37:cd:2a:58:88:43:f2:ac:53:c5:5b:ad:fa:b4:5d:97:b6:8f:
         74:ae:3b:29:69:07:15:0f:4f:e6:f5:8c:91:41:03:8a:05:76:
         0c:49:0a:71:c3:3b:da:40
-----BEGIN CERTIFICATE-----
MIIE7jCCAtagAwIBAgIBATANBgkqhkiG9w0BAQsFADCBiDELMAkGA1UEBhMCQ04x
EDAOBgNVBAgMB3NoYW5ueGkxDjAMBgNVBAcMBXhpJ2FuMQ8wDQYDVQQKDAZtYXJt
b3QxDTALBgNVBAsMBHRlY2gxFzAVBgNVBAMMDnd3dy5tYXJtb3QuY29tMR4wHAYJ
KoZIhvcNAQkBFg80MTg5MzIwNEBxcS5jb20wHhcNMTcxMjI3MDM1MDQxWhcNMjcx
MjMwMDM1MDQxWjBvMQswCQYDVQQGEwJDTjEQMA4GA1UECAwHc2hhbm54aTEPMA0G
A1UECgwGbWFybW90MQ0wCwYDVQQLDAR0ZWNoMQ4wDAYDVQQDDAVtb25nbzEeMBwG
CSqGSIb3DQEJARYPNDE4OTMyMDRAcXEuY29tMIIBIjANBgkqhkiG9w0BAQEFAAOC
AQ8AMIIBCgKCAQEA3QDipTZ/iIbv5+lr45WuPnK0TOJK11NhfOO2Vt5i1tSY14Bh
3uzg2ZwQQTcwGizYUWqM9m7Z16CgR1j4seh13c12U1eF3GeBkC+FynYPWCBIjaZY
kYGCoWMJGwTLdNct3yB6cmcJJgQ+Jf3a+uE4Bz1+0Lo5fuL071uW++1qTRSxXWpq
zW9yrO+oTELQ09Z4Z2RHt9AGsZFUR5fLvhNbFXIDxma40Ucjf8oHWliCTnN6KW2L
V6XTCAJ3YbnKPAhxudLl9V4RkgPjB3smuvSiUuCpopW2MgqIhB2c5baGXmBk8jDc
t3vVqZQlF4mlYed/PKlqLu+D7sPLyhtf0UxD7wIDAQABo3sweTAJBgNVHRMEAjAA
MCwGCWCGSAGG+EIBDQQfFh1PcGVuU1NMIEdlbmVyYXRlZCBDZXJ0aWZpY2F0ZTAd
BgNVHQ4EFgQUkwyfbvs4R4USOF/RWXlT96m/9NkwHwYDVR0jBBgwFoAUW5sOW/T/
hQhyRn6FPNLBuPodX4EwDQYJKoZIhvcNAQELBQADggIBAJ5g73adsaUryZ67ejBb
omzlupr+MlLvQF28pZkKscnXWkJJECNFPT3r6P/fX3VdoAQKo0D4gfMFXsSeN1lL
QjDyCw7Ufr2mxEP0j3bGWTKTm+mFPocP/Q7gTXbCHHNsBO2WcHG/sZclNHLW73u6
odj4LteLjU8wOQw4l9cyYh6s1fPh4fBz1lAwt0ubtNI7/QdkUApARDIfOke6Gw3z
x7LDxKeocWE3PoxQ8uaqQejSkjc3bb4kS+TSyJY+7JsY6PSzSgd4eSpUWOIJR1+f
vQlWiocDnjTrCt4j7v+S/zdOGA3Gxtqx+qst58QkUgrUYzLhuX1L17ntavS0dZEs
FuA2uInJ8EwM/9gIsBHPG1xijCNxLhxBLHV31q+W6Tf5Z6t8Fummq5gjfCR8Eh2c
bTyBcPgjzlS902ierXaJgGBWdzq0/3SNPkG/A1BqF5w9kN/9v19WbvZ5J+f33IJ3
coyM1+ySvyNsLkMPd65GtFiQtXIvhgjTneAlnqiZINZVuXbq36ToHDRHDI3SQUQZ
VXxs0Vh1ENaymuFD4yHoz3Wnjc/sYe8d/Ltjuk0l9t9OT+/BmfkirlugZ1llb3/q
Xq+PCGShwTgh4uaPNWQnF+Ih2gRmADfNKliIQ/KsU8Vbrfq0XZe2j3SuOylpBxUP
T+b1jJFBA4oFdgxJCnHDO9pA
-----END CERTIFICATE-----
